target datalayout = "e-m:e-p270:32:32-p271:32:32-p272:64:64-i64:64-i128:128-f80:128-n8:16:32:64-S128"
target triple = "x86_64-pc-linux-gnu"

%"class.cvc5::internal::NodeTemplate" = type { ptr }
%"class.cvc5::internal::expr::NodeValue" = type { i64, i64, ptr, [0 x ptr] }

; Function Attrs: inlinehint mustprogress nounwind uwtable
define linkonce_odr hidden void @_ZNK4cvc58internal12NodeTemplateILb0EE21assertTNodeNotExpiredEv(ptr noundef nonnull align 8 dereferenceable(8) %0) #8 comdat align 2 {
  %2 = alloca ptr, align 8
  store ptr %0, ptr %2, align 8, !tbaa !8
  ret void
}

; Function Attrs: inlinehint mustprogress nounwind uwtable
define linkonce_odr hidden noundef i32 @_ZNK4cvc58internal12NodeTemplateILb0EE7getKindEv(ptr noundef nonnull align 8 dereferenceable(8) %0) #8 comdat align 2 {
  %2 = alloca ptr, align 8
  store ptr %0, ptr %2, align 8, !tbaa !8
  %3 = load ptr, ptr %2, align 8
  call void @_ZNK4cvc58internal12NodeTemplateILb0EE21assertTNodeNotExpiredEv(ptr noundef nonnull align 8 dereferenceable(8) %3)
  %4 = getelementptr inbounds nuw %"class.cvc5::internal::NodeTemplate", ptr %3, i32 0, i32 0
  %5 = load ptr, ptr %4, align 8, !tbaa !18
  %6 = getelementptr inbounds nuw %"class.cvc5::internal::expr::NodeValue", ptr %5, i32 0, i32 1
  %7 = load i64, ptr %6, align 8
  %8 = and i64 %7, 1023
  %9 = trunc i64 %8 to i32
  ret i32 %9
}

; Function Attrs: mustprogress uwtable
define hidden noundef i32 @_ZNK4cvc58internal19PolarityTermContext12computeValueENS0_12NodeTemplateILb0EEEjm(ptr noundef nonnull align 8 dereferenceable(8) %0, ptr noundef %1, i32 noundef %2, i64 noundef %3) unnamed_addr #5 align 2 {
  %5 = alloca i32, align 4
  %6 = alloca ptr, align 8
  %7 = alloca ptr, align 8
  %8 = alloca i32, align 4
  %9 = alloca i64, align 8
  store ptr %0, ptr %6, align 8, !tbaa !29
  store ptr %1, ptr %7, align 8, !tbaa !8
  store i32 %2, ptr %8, align 4, !tbaa !10
  store i64 %3, ptr %9, align 8, !tbaa !14
  %10 = call noundef i32 @_ZNK4cvc58internal12NodeTemplateILb0EE7getKindEv(ptr noundef nonnull align 8 dereferenceable(8) %1)
  switch i32 %10, label %54 [
    i32 22, label %11
    i32 24, label %11
    i32 249, label %11
    i32 23, label %13
    i32 21, label %29
    i32 26, label %38
    i32 365, label %46
  ]

11:                                               ; preds = %4, %4, %4
  %12 = load i32, ptr %8, align 4, !tbaa !10
  store i32 %12, ptr %5, align 4
  br label %56

13:                                               ; preds = %4
  %14 = load i64, ptr %9, align 8, !tbaa !14
  %15 = icmp eq i64 %14, 0
  br i1 %15, label %16, label %25

16:                                               ; preds = %13
  %17 = load i32, ptr %8, align 4, !tbaa !10
  %18 = icmp eq i32 %17, 0
  br i1 %18, label %19, label %20

19:                                               ; preds = %16
  br label %23

20:                                               ; preds = %16
  %21 = load i32, ptr %8, align 4, !tbaa !10
  %22 = sub i32 3, %21
  br label %23

23:                                               ; preds = %20, %19
  %24 = phi i32 [ 0, %19 ], [ %22, %20 ]
  br label %27

25:                                               ; preds = %13
  %26 = load i32, ptr %8, align 4, !tbaa !10
  br label %27

27:                                               ; preds = %25, %23
  %28 = phi i32 [ %24, %23 ], [ %26, %25 ]
  store i32 %28, ptr %5, align 4
  br label %56

29:                                               ; preds = %4
  %30 = load i32, ptr %8, align 4, !tbaa !10
  %31 = icmp eq i32 %30, 0
  br i1 %31, label %32, label %33

32:                                               ; preds = %29
  br label %36

33:                                               ; preds = %29
  %34 = load i32, ptr %8, align 4, !tbaa !10
  %35 = sub i32 3, %34
  br label %36

36:                                               ; preds = %33, %32
  %37 = phi i32 [ 0, %32 ], [ %35, %33 ]
  store i32 %37, ptr %5, align 4
  br label %56

38:                                               ; preds = %4
  %39 = load i64, ptr %9, align 8, !tbaa !14
  %40 = icmp eq i64 %39, 0
  br i1 %40, label %41, label %42

41:                                               ; preds = %38
  br label %44

42:                                               ; preds = %38
  %43 = load i32, ptr %8, align 4, !tbaa !10
  br label %44

44:                                               ; preds = %42, %41
  %45 = phi i32 [ 0, %41 ], [ %43, %42 ]
  store i32 %45, ptr %5, align 4
  br label %56

46:                                               ; preds = %4
  %47 = load i64, ptr %9, align 8, !tbaa !14
  %48 = icmp eq i64 %47, 1
  br i1 %48, label %49, label %51

49:                                               ; preds = %46
  %50 = load i32, ptr %8, align 4, !tbaa !10
  br label %52

51:                                               ; preds = %46
  br label %52

52:                                               ; preds = %51, %49
  %53 = phi i32 [ %50, %49 ], [ 0, %51 ]
  store i32 %53, ptr %5, align 4
  br label %56

54:                                               ; preds = %4
  br label %55

55:                                               ; preds = %54
  store i32 0, ptr %5, align 4
  br label %56

56:                                               ; preds = %55, %52, %44, %36, %27, %11
  %57 = load i32, ptr %5, align 4
  ret i32 %57
}