; Function Attrs: mustprogress nofree norecurse nosync nounwind willreturn memory(read, inaccessiblemem: none) uwtable
define hidden noundef i32 @_ZNK4cvc58internal19PolarityTermContext12computeValueENS0_12NodeTemplateILb0EEEjm(ptr nonnull readnone align 8 captures(none) %0, ptr noundef readonly captures(none) %1, i32 noundef %2, i64 noundef %3) unnamed_addr #6 align 2 {
  %5 = load ptr, ptr %1, align 8, !tbaa !3
  %6 = getelementptr inbounds nuw i8, ptr %5, i64 8
  %7 = load i64, ptr %6, align 8
  %8 = trunc i64 %7 to i32
  %9 = and i32 %8, 1023
  switch i32 %9, label %26 [
    i32 22, label %27
    i32 24, label %27
    i32 249, label %27
    i32 23, label %10
    i32 21, label %16
    i32 26, label %20
    i32 365, label %23
  ]

10:                                               ; preds = %4
  %11 = icmp eq i64 %3, 0
  %12 = icmp eq i32 %2, 0
  %13 = sub i32 3, %2
  %14 = select i1 %12, i32 0, i32 %13
  %15 = select i1 %11, i32 %14, i32 %2
  br label %27

16:                                               ; preds = %4
  %17 = icmp eq i32 %2, 0
  %18 = sub i32 3, %2
  %19 = select i1 %17, i32 0, i32 %18
  br label %27

20:                                               ; preds = %4
  %21 = icmp eq i64 %3, 0
  %22 = select i1 %21, i32 0, i32 %2
  br label %27

23:                                               ; preds = %4
  %24 = icmp eq i64 %3, 1
  %25 = select i1 %24, i32 %2, i32 0
  br label %27

26:                                               ; preds = %4
  br label %27

27:                                               ; preds = %4, %4, %4, %26, %23, %20, %16, %10
  %.0 = phi i32 [ 0, %26 ], [ %25, %23 ], [ %22, %20 ], [ %19, %16 ], [ %15, %10 ], [ %2, %4 ], [ %2, %4 ], [ %2, %4 ]
  ret i32 %.0
}